target datalayout = "e-m:e-p270:32:32-p271:32:32-p272:64:64-i64:64-i128:128-f80:128-n8:16:32:64-S128"
target triple = "x86_64-pc-linux-gnu"

%struct.ZSTD_customMem = type { ptr, ptr, ptr }
%struct.POOL_ctx_s = type { %struct.ZSTD_customMem, ptr, i64, i64, ptr, i64, i64, i64, i64, i32, %union.pthread_mutex_t, %union.pthread_cond_t, %union.pthread_cond_t, i32 }
%union.pthread_mutex_t = type { %struct.__pthread_mutex_s }
%struct.__pthread_mutex_s = type { i32, i32, i32, i32, i32, i16, i16, %struct.__pthread_internal_list }
%struct.__pthread_internal_list = type { ptr, ptr }
%union.pthread_cond_t = type { %struct.__pthread_cond_s }
%struct.__pthread_cond_s = type { %union.__atomic_wide_counter, %union.__atomic_wide_counter, [2 x i32], [2 x i32], i32, i32, [2 x i32] }
%union.__atomic_wide_counter = type { i64 }

; Function Attrs: inlinehint nounwind uwtable
define internal void @ZSTD_customFree(ptr noundef %0, ptr noundef byval(%struct.ZSTD_customMem) align 8 %1) #2 {
  %3 = alloca ptr, align 8
  store ptr %0, ptr %3, align 8, !tbaa !26
  %4 = load ptr, ptr %3, align 8, !tbaa !26
  %5 = icmp ne ptr %4, null
  br i1 %5, label %6, label %19

6:                                                ; preds = %2
  %7 = getelementptr inbounds nuw %struct.ZSTD_customMem, ptr %1, i32 0, i32 1
  %8 = load ptr, ptr %7, align 8, !tbaa !38
  %9 = icmp ne ptr %8, null
  br i1 %9, label %10, label %16

10:                                               ; preds = %6
  %11 = getelementptr inbounds nuw %struct.ZSTD_customMem, ptr %1, i32 0, i32 1
  %12 = load ptr, ptr %11, align 8, !tbaa !38
  %13 = getelementptr inbounds nuw %struct.ZSTD_customMem, ptr %1, i32 0, i32 2
  %14 = load ptr, ptr %13, align 8, !tbaa !31
  %15 = load ptr, ptr %3, align 8, !tbaa !26
  call void %12(ptr noundef %14, ptr noundef %15)
  br label %18

16:                                               ; preds = %6
  %17 = load ptr, ptr %3, align 8, !tbaa !26
  call void @free(ptr noundef %17) #8
  br label %18

18:                                               ; preds = %16, %10
  br label %19

19:                                               ; preds = %18, %2
  ret void
}

; Function Attrs: nounwind uwtable
define internal void @POOL_join(ptr noundef %0) #0 {
  %2 = alloca ptr, align 8
  %3 = alloca i64, align 8
  store ptr %0, ptr %2, align 8, !tbaa !7
  %4 = load ptr, ptr %2, align 8, !tbaa !7
  %5 = getelementptr inbounds nuw %struct.POOL_ctx_s, ptr %4, i32 0, i32 10
  %6 = call i32 @pthread_mutex_lock(ptr noundef %5) #8
  %7 = load ptr, ptr %2, align 8, !tbaa !7
  %8 = getelementptr inbounds nuw %struct.POOL_ctx_s, ptr %7, i32 0, i32 13
  store i32 1, ptr %8, align 8, !tbaa !22
  %9 = load ptr, ptr %2, align 8, !tbaa !7
  %10 = getelementptr inbounds nuw %struct.POOL_ctx_s, ptr %9, i32 0, i32 10
  %11 = call i32 @pthread_mutex_unlock(ptr noundef %10) #8
  %12 = load ptr, ptr %2, align 8, !tbaa !7
  %13 = getelementptr inbounds nuw %struct.POOL_ctx_s, ptr %12, i32 0, i32 11
  %14 = call i32 @pthread_cond_broadcast(ptr noundef %13) #8
  %15 = load ptr, ptr %2, align 8, !tbaa !7
  %16 = getelementptr inbounds nuw %struct.POOL_ctx_s, ptr %15, i32 0, i32 12
  %17 = call i32 @pthread_cond_broadcast(ptr noundef %16) #8
  call void @llvm.lifetime.start.p0(i64 8, ptr %3) #8
  store i64 0, ptr %3, align 8, !tbaa !3
  br label %18

18:                                               ; preds = %32, %1
  %19 = load i64, ptr %3, align 8, !tbaa !3
  %20 = load ptr, ptr %2, align 8, !tbaa !7
  %21 = getelementptr inbounds nuw %struct.POOL_ctx_s, ptr %20, i32 0, i32 2
  %22 = load i64, ptr %21, align 8, !tbaa !24
  %23 = icmp ult i64 %19, %22
  br i1 %23, label %24, label %35

24:                                               ; preds = %18
  %25 = load ptr, ptr %2, align 8, !tbaa !7
  %26 = getelementptr inbounds nuw %struct.POOL_ctx_s, ptr %25, i32 0, i32 1
  %27 = load ptr, ptr %26, align 8, !tbaa !23
  %28 = load i64, ptr %3, align 8, !tbaa !3
  %29 = getelementptr inbounds nuw i64, ptr %27, i64 %28
  %30 = load i64, ptr %29, align 8, !tbaa !3
  %31 = call i32 @pthread_join(i64 noundef %30, ptr noundef null)
  br label %32

32:                                               ; preds = %24
  %33 = load i64, ptr %3, align 8, !tbaa !3
  %34 = add i64 %33, 1
  store i64 %34, ptr %3, align 8, !tbaa !3
  br label %18, !llvm.loop !37

35:                                               ; preds = %18
  call void @llvm.lifetime.end.p0(i64 8, ptr %3) #8
  ret void
}

; Function Attrs: nounwind uwtable
define void @POOL_free(ptr noundef %0) #0 {
  %2 = alloca ptr, align 8
  store ptr %0, ptr %2, align 8, !tbaa !7
  %3 = load ptr, ptr %2, align 8, !tbaa !7
  %4 = icmp ne ptr %3, null
  br i1 %4, label %6, label %5

5:                                                ; preds = %1
  br label %30

6:                                                ; preds = %1
  %7 = load ptr, ptr %2, align 8, !tbaa !7
  call void @POOL_join(ptr noundef %7)
  %8 = load ptr, ptr %2, align 8, !tbaa !7
  %9 = getelementptr inbounds nuw %struct.POOL_ctx_s, ptr %8, i32 0, i32 10
  %10 = call i32 @pthread_mutex_destroy(ptr noundef %9) #8
  %11 = load ptr, ptr %2, align 8, !tbaa !7
  %12 = getelementptr inbounds nuw %struct.POOL_ctx_s, ptr %11, i32 0, i32 11
  %13 = call i32 @pthread_cond_destroy(ptr noundef %12) #8
  %14 = load ptr, ptr %2, align 8, !tbaa !7
  %15 = getelementptr inbounds nuw %struct.POOL_ctx_s, ptr %14, i32 0, i32 12
  %16 = call i32 @pthread_cond_destroy(ptr noundef %15) #8
  %17 = load ptr, ptr %2, align 8, !tbaa !7
  %18 = getelementptr inbounds nuw %struct.POOL_ctx_s, ptr %17, i32 0, i32 4
  %19 = load ptr, ptr %18, align 8, !tbaa !16
  %20 = load ptr, ptr %2, align 8, !tbaa !7
  %21 = getelementptr inbounds nuw %struct.POOL_ctx_s, ptr %20, i32 0, i32 0
  call void @ZSTD_customFree(ptr noundef %19, ptr noundef byval(%struct.ZSTD_customMem) align 8 %21)
  %22 = load ptr, ptr %2, align 8, !tbaa !7
  %23 = getelementptr inbounds nuw %struct.POOL_ctx_s, ptr %22, i32 0, i32 1
  %24 = load ptr, ptr %23, align 8, !tbaa !23
  %25 = load ptr, ptr %2, align 8, !tbaa !7
  %26 = getelementptr inbounds nuw %struct.POOL_ctx_s, ptr %25, i32 0, i32 0
  call void @ZSTD_customFree(ptr noundef %24, ptr noundef byval(%struct.ZSTD_customMem) align 8 %26)
  %27 = load ptr, ptr %2, align 8, !tbaa !7
  %28 = load ptr, ptr %2, align 8, !tbaa !7
  %29 = getelementptr inbounds nuw %struct.POOL_ctx_s, ptr %28, i32 0, i32 0
  call void @ZSTD_customFree(ptr noundef %27, ptr noundef byval(%struct.ZSTD_customMem) align 8 %29)
  br label %30

30:                                               ; preds = %6, %5
  ret void
}