; Function Attrs: nounwind uwtable
define void @POOL_free(ptr noundef %0) local_unnamed_addr #0 {
  %.not = icmp eq ptr %0, null
  br i1 %.not, label %ZSTD_customFree.exit22, label %2

2:                                                ; preds = %1
  %3 = getelementptr inbounds nuw i8, ptr %0, i64 96
  %4 = tail call i32 @pthread_mutex_lock(ptr noundef nonnull %3) #9
  %5 = getelementptr inbounds nuw i8, ptr %0, i64 232
  store i32 1, ptr %5, align 8, !tbaa !17
  %6 = tail call i32 @pthread_mutex_unlock(ptr noundef nonnull %3) #9
  %7 = getelementptr inbounds nuw i8, ptr %0, i64 136
  %8 = tail call i32 @pthread_cond_broadcast(ptr noundef nonnull %7) #9
  %9 = getelementptr inbounds nuw i8, ptr %0, i64 184
  %10 = tail call i32 @pthread_cond_broadcast(ptr noundef nonnull %9) #9
  %11 = getelementptr inbounds nuw i8, ptr %0, i64 32
  %12 = load i64, ptr %11, align 8, !tbaa !19
  %.not.i = icmp eq i64 %12, 0
  br i1 %.not.i, label %POOL_join.exit, label %.lr.ph.i

.lr.ph.i:                                         ; preds = %2
  %13 = getelementptr inbounds nuw i8, ptr %0, i64 24
  br label %14

14:                                               ; preds = %14, %.lr.ph.i
  %.09.i = phi i64 [ 0, %.lr.ph.i ], [ %19, %14 ]
  %15 = load ptr, ptr %13, align 8, !tbaa !18
  %16 = getelementptr inbounds nuw i64, ptr %15, i64 %.09.i
  %17 = load i64, ptr %16, align 8, !tbaa !25
  %18 = tail call i32 @pthread_join(i64 noundef %17, ptr noundef null) #9
  %19 = add nuw i64 %.09.i, 1
  %20 = load i64, ptr %11, align 8, !tbaa !19
  %21 = icmp ult i64 %19, %20
  br i1 %21, label %14, label %POOL_join.exit, !llvm.loop !26

POOL_join.exit:                                   ; preds = %14, %2
  %22 = tail call i32 @pthread_mutex_destroy(ptr noundef nonnull %3) #9
  %23 = tail call i32 @pthread_cond_destroy(ptr noundef nonnull %7) #9
  %24 = tail call i32 @pthread_cond_destroy(ptr noundef nonnull %9) #9
  %25 = getelementptr inbounds nuw i8, ptr %0, i64 48
  %26 = load ptr, ptr %25, align 8, !tbaa !14
  %27 = getelementptr i8, ptr %0, i64 8
  %.val = load ptr, ptr %27, align 8
  %28 = getelementptr i8, ptr %0, i64 16
  %.val11 = load ptr, ptr %28, align 8
  %.not.i16 = icmp eq ptr %26, null
  br i1 %.not.i16, label %ZSTD_customFree.exit, label %29

29:                                               ; preds = %POOL_join.exit
  %.not4.i = icmp eq ptr %.val, null
  br i1 %.not4.i, label %31, label %30

30:                                               ; preds = %29
  tail call void %.val(ptr noundef %.val11, ptr noundef nonnull %26) #9
  br label %ZSTD_customFree.exitthread-pre-split

31:                                               ; preds = %29
  tail call void @free(ptr noundef nonnull %26) #9
  br label %ZSTD_customFree.exitthread-pre-split

ZSTD_customFree.exitthread-pre-split:             ; preds = %31, %30
  %.val12.pr = load ptr, ptr %27, align 8
  %.val13.pre = load ptr, ptr %28, align 8
  br label %ZSTD_customFree.exit

ZSTD_customFree.exit:                             ; preds = %ZSTD_customFree.exitthread-pre-split, %POOL_join.exit
  %.val13 = phi ptr [ %.val13.pre, %ZSTD_customFree.exitthread-pre-split ], [ %.val11, %POOL_join.exit ]
  %.val12 = phi ptr [ %.val12.pr, %ZSTD_customFree.exitthread-pre-split ], [ %.val, %POOL_join.exit ]
  %32 = getelementptr inbounds nuw i8, ptr %0, i64 24
  %33 = load ptr, ptr %32, align 8, !tbaa !18
  %.not.i17 = icmp eq ptr %33, null
  br i1 %.not.i17, label %37, label %34

34:                                               ; preds = %ZSTD_customFree.exit
  %.not4.i18 = icmp eq ptr %.val12, null
  br i1 %.not4.i18, label %36, label %35

35:                                               ; preds = %34
  tail call void %.val12(ptr noundef %.val13, ptr noundef nonnull %33) #9
  br label %37

36:                                               ; preds = %34
  tail call void @free(ptr noundef nonnull %33) #9
  br label %37

37:                                               ; preds = %36, %35, %ZSTD_customFree.exit
  %.val14 = load ptr, ptr %27, align 8
  %.not4.i21 = icmp eq ptr %.val14, null
  br i1 %.not4.i21, label %39, label %38

38:                                               ; preds = %37
  %.val15 = load ptr, ptr %28, align 8
  tail call void %.val14(ptr noundef %.val15, ptr noundef nonnull %0) #9
  br label %ZSTD_customFree.exit22

39:                                               ; preds = %37
  tail call void @free(ptr noundef nonnull %0) #9
  br label %ZSTD_customFree.exit22

ZSTD_customFree.exit22:                           ; preds = %39, %38, %1
  ret void
}